target datalayout = "e-m:e-p270:32:32-p271:32:32-p272:64:64-i64:64-i128:128-f80:128-n8:16:32:64-S128"
target triple = "x86_64-pc-linux-gnu"

; Function Attrs: nounwind uwtable
define void @luckyCanonicizerS_F_first_16Vars1(ptr noundef %0, i32 noundef %1, i32 noundef %2, ptr noundef %3, ptr noundef %4, ptr noundef %5) #0 {
  %7 = alloca ptr, align 8
  %8 = alloca i32, align 4
  %9 = alloca i32, align 4
  %10 = alloca ptr, align 8
  %11 = alloca ptr, align 8
  %12 = alloca ptr, align 8
  store ptr %0, ptr %7, align 8, !tbaa !3
  store i32 %1, ptr %8, align 4, !tbaa !8
  store i32 %2, ptr %9, align 4, !tbaa !8
  store ptr %3, ptr %10, align 8, !tbaa !12
  store ptr %4, ptr %11, align 8, !tbaa !10
  store ptr %5, ptr %12, align 8, !tbaa !12
  %13 = load ptr, ptr %12, align 8, !tbaa !12
  %14 = load i32, ptr %13, align 4, !tbaa !8
  %15 = load i32, ptr %8, align 4, !tbaa !8
  %16 = add nsw i32 %15, 1
  %17 = lshr i32 %14, %16
  %18 = and i32 %17, 1
  %19 = icmp ne i32 %18, 0
  br i1 %19, label %20, label %32

20:                                               ; preds = %6
  br label %21

21:                                               ; preds = %30, %20
  %22 = load ptr, ptr %7, align 8, !tbaa !3
  %23 = load i32, ptr %8, align 4, !tbaa !8
  %24 = load i32, ptr %9, align 4, !tbaa !8
  %25 = load ptr, ptr %10, align 8, !tbaa !12
  %26 = load ptr, ptr %11, align 8, !tbaa !10
  %27 = load ptr, ptr %12, align 8, !tbaa !12
  %28 = call i32 @minimalSwapAndFlipIVar_superFast_all(ptr noundef %22, i32 noundef %23, i32 noundef %24, ptr noundef %25, ptr noundef %26, ptr noundef %27)
  %29 = icmp ne i32 %28, 0
  br i1 %29, label %30, label %31

30:                                               ; preds = %21
  br label %21, !llvm.loop !43

31:                                               ; preds = %21
  br label %44

32:                                               ; preds = %6
  br label %33

33:                                               ; preds = %42, %32
  %34 = load ptr, ptr %7, align 8, !tbaa !3
  %35 = load i32, ptr %8, align 4, !tbaa !8
  %36 = load i32, ptr %9, align 4, !tbaa !8
  %37 = load ptr, ptr %10, align 8, !tbaa !12
  %38 = load ptr, ptr %11, align 8, !tbaa !10
  %39 = load ptr, ptr %12, align 8, !tbaa !12
  %40 = call i32 @minimalSwapAndFlipIVar_superFast_all_noEBFC(ptr noundef %34, i32 noundef %35, i32 noundef %36, ptr noundef %37, ptr noundef %38, ptr noundef %39)
  %41 = icmp ne i32 %40, 0
  br i1 %41, label %42, label %43

42:                                               ; preds = %33
  br label %33, !llvm.loop !44

43:                                               ; preds = %33
  br label %44

44:                                               ; preds = %43, %31
  ret void
}

; Function Attrs: nounwind uwtable
define void @luckyCanonicizerS_F_first_16Vars11(ptr noundef %0, i32 noundef %1, i32 noundef %2, ptr noundef %3, ptr noundef %4, ptr noundef %5) #0 {
  %7 = alloca ptr, align 8
  %8 = alloca i32, align 4
  %9 = alloca i32, align 4
  %10 = alloca ptr, align 8
  %11 = alloca ptr, align 8
  %12 = alloca ptr, align 8
  %13 = alloca [1024 x i64], align 16
  %14 = alloca [16 x i8], align 16
  %15 = alloca i32, align 4
  store ptr %0, ptr %7, align 8, !tbaa !3
  store i32 %1, ptr %8, align 4, !tbaa !8
  store i32 %2, ptr %9, align 4, !tbaa !8
  store ptr %3, ptr %10, align 8, !tbaa !12
  store ptr %4, ptr %11, align 8, !tbaa !10
  store ptr %5, ptr %12, align 8, !tbaa !12
  call void @llvm.lifetime.start.p0(i64 8192, ptr %13) #7
  call void @llvm.lifetime.start.p0(i64 16, ptr %14) #7
  call void @llvm.lifetime.start.p0(i64 4, ptr %15) #7
  %16 = load ptr, ptr %12, align 8, !tbaa !12
  %17 = load i32, ptr %16, align 4, !tbaa !8
  %18 = load i32, ptr %8, align 4, !tbaa !8
  %19 = add nsw i32 %18, 2
  %20 = lshr i32 %17, %19
  %21 = icmp ne i32 %20, 0
  br i1 %21, label %22, label %65

22:                                               ; preds = %6
  %23 = getelementptr inbounds [1024 x i64], ptr %13, i64 0, i64 0
  %24 = load ptr, ptr %7, align 8, !tbaa !3
  %25 = load i32, ptr %9, align 4, !tbaa !8
  %26 = sext i32 %25 to i64
  %27 = mul i64 8, %26
  call void @llvm.memcpy.p0.p0.i64(ptr align 16 %23, ptr align 8 %24, i64 %27, i1 false)
  %28 = getelementptr inbounds [1024 x i64], ptr %13, i64 0, i64 0
  %29 = load i32, ptr %8, align 4, !tbaa !8
  call void @Kit_TruthNot_64bit(ptr noundef %28, i32 noundef %29)
  %30 = load ptr, ptr %12, align 8, !tbaa !12
  %31 = load i32, ptr %30, align 4, !tbaa !8
  store i32 %31, ptr %15, align 4, !tbaa !8
  %32 = load i32, ptr %8, align 4, !tbaa !8
  %33 = shl i32 1, %32
  %34 = load i32, ptr %15, align 4, !tbaa !8
  %35 = xor i32 %34, %33
  store i32 %35, ptr %15, align 4, !tbaa !8
  %36 = getelementptr inbounds [16 x i8], ptr %14, i64 0, i64 0
  %37 = load ptr, ptr %11, align 8, !tbaa !10
  call void @llvm.memcpy.p0.p0.i64(ptr align 16 %36, ptr align 1 %37, i64 16, i1 false)
  %38 = load ptr, ptr %7, align 8, !tbaa !3
  %39 = load i32, ptr %8, align 4, !tbaa !8
  %40 = load i32, ptr %9, align 4, !tbaa !8
  %41 = load ptr, ptr %10, align 8, !tbaa !12
  %42 = load ptr, ptr %11, align 8, !tbaa !10
  %43 = load ptr, ptr %12, align 8, !tbaa !12
  call void @luckyCanonicizerS_F_first_16Vars1(ptr noundef %38, i32 noundef %39, i32 noundef %40, ptr noundef %41, ptr noundef %42, ptr noundef %43)
  %44 = getelementptr inbounds [1024 x i64], ptr %13, i64 0, i64 0
  %45 = load i32, ptr %8, align 4, !tbaa !8
  %46 = load i32, ptr %9, align 4, !tbaa !8
  %47 = load ptr, ptr %10, align 8, !tbaa !12
  %48 = getelementptr inbounds [16 x i8], ptr %14, i64 0, i64 0
  call void @luckyCanonicizerS_F_first_16Vars1(ptr noundef %44, i32 noundef %45, i32 noundef %46, ptr noundef %47, ptr noundef %48, ptr noundef %15)
  %49 = load ptr, ptr %7, align 8, !tbaa !3
  %50 = getelementptr inbounds [1024 x i64], ptr %13, i64 0, i64 0
  %51 = load i32, ptr %8, align 4, !tbaa !8
  %52 = call i32 @memCompare(ptr noundef %49, ptr noundef %50, i32 noundef %51)
  %53 = icmp eq i32 %52, 1
  br i1 %53, label %54, label %64

54:                                               ; preds = %22
  %55 = load i32, ptr %15, align 4, !tbaa !8
  %56 = load ptr, ptr %12, align 8, !tbaa !12
  store i32 %55, ptr %56, align 4, !tbaa !8
  %57 = load ptr, ptr %11, align 8, !tbaa !10
  %58 = getelementptr inbounds [16 x i8], ptr %14, i64 0, i64 0
  call void @llvm.memcpy.p0.p0.i64(ptr align 1 %57, ptr align 16 %58, i64 16, i1 false)
  %59 = load ptr, ptr %7, align 8, !tbaa !3
  %60 = getelementptr inbounds [1024 x i64], ptr %13, i64 0, i64 0
  %61 = load i32, ptr %9, align 4, !tbaa !8
  %62 = sext i32 %61 to i64
  %63 = mul i64 8, %62
  call void @llvm.memcpy.p0.p0.i64(ptr align 8 %59, ptr align 16 %60, i64 %63, i1 false)
  br label %64

64:                                               ; preds = %54, %22
  br label %72

65:                                               ; preds = %6
  %66 = load ptr, ptr %7, align 8, !tbaa !3
  %67 = load i32, ptr %8, align 4, !tbaa !8
  %68 = load i32, ptr %9, align 4, !tbaa !8
  %69 = load ptr, ptr %10, align 8, !tbaa !12
  %70 = load ptr, ptr %11, align 8, !tbaa !10
  %71 = load ptr, ptr %12, align 8, !tbaa !12
  call void @luckyCanonicizerS_F_first_16Vars1(ptr noundef %66, i32 noundef %67, i32 noundef %68, ptr noundef %69, ptr noundef %70, ptr noundef %71)
  br label %72

72:                                               ; preds = %65, %64
  call void @llvm.lifetime.end.p0(i64 4, ptr %15) #7
  call void @llvm.lifetime.end.p0(i64 16, ptr %14) #7
  call void @llvm.lifetime.end.p0(i64 8192, ptr %13) #7
  ret void
}