; Function Attrs: nounwind uwtable
define void @luckyCanonicizerS_F_first_16Vars11(ptr noundef %0, i32 noundef %1, i32 noundef %2, ptr noundef readonly captures(none) %3, ptr noundef %4, ptr noundef captures(none) %5) local_unnamed_addr #0 {
  %7 = alloca [1024 x i64], align 16
  %8 = alloca [16 x i8], align 16
  %9 = alloca i32, align 4
  call void @llvm.lifetime.start.p0(i64 8192, ptr nonnull %7) #9
  call void @llvm.lifetime.start.p0(i64 16, ptr nonnull %8) #9
  call void @llvm.lifetime.start.p0(i64 4, ptr nonnull %9) #9
  %10 = load i32, ptr %5, align 4, !tbaa !6
  %11 = add nsw i32 %1, 2
  %12 = lshr i32 %10, %11
  %.not = icmp eq i32 %12, 0
  br i1 %.not, label %31, label %13

13:                                               ; preds = %6
  %14 = sext i32 %2 to i64
  %15 = shl nsw i64 %14, 3
  call void @llvm.memcpy.p0.p0.i64(ptr nonnull align 16 %7, ptr align 8 %0, i64 %15, i1 false)
  call void @Kit_TruthNot_64bit(ptr noundef nonnull %7, i32 noundef %1) #9
  %16 = load i32, ptr %5, align 4, !tbaa !6
  %17 = shl nuw i32 1, %1
  %18 = xor i32 %16, %17
  store i32 %18, ptr %9, align 4, !tbaa !6
  call void @llvm.memcpy.p0.p0.i64(ptr noundef nonnull align 16 dereferenceable(16) %8, ptr noundef nonnull align 1 dereferenceable(16) %4, i64 16, i1 false)
  %19 = add nsw i32 %1, 1
  %20 = shl nuw i32 1, %19
  %21 = and i32 %16, %20
  %.not.i = icmp eq i32 %21, 0
  br i1 %.not.i, label %.preheader.i, label %.preheader15.i

.preheader15.i:                                   ; preds = %13, %.preheader15.i
  %22 = call i32 @minimalSwapAndFlipIVar_superFast_all(ptr noundef %0, i32 noundef %1, i32 noundef %2, ptr noundef readonly %3, ptr noundef nonnull %4, ptr noundef nonnull %5)
  %.not14.i = icmp eq i32 %22, 0
  br i1 %.not14.i, label %luckyCanonicizerS_F_first_16Vars1.exit, label %.preheader15.i, !llvm.loop !36

.preheader.i:                                     ; preds = %13, %.preheader.i
  %23 = call i32 @minimalSwapAndFlipIVar_superFast_all_noEBFC(ptr noundef %0, i32 noundef %1, i32 noundef %2, ptr noundef readonly %3, ptr noundef nonnull %4, ptr noundef nonnull %5)
  %.not13.i = icmp eq i32 %23, 0
  br i1 %.not13.i, label %luckyCanonicizerS_F_first_16Vars1.exit, label %.preheader.i, !llvm.loop !37

luckyCanonicizerS_F_first_16Vars1.exit:           ; preds = %.preheader15.i, %.preheader.i
  %24 = and i32 %18, %20
  %.not.i28 = icmp eq i32 %24, 0
  br i1 %.not.i28, label %.preheader.i31, label %.preheader15.i29

.preheader15.i29:                                 ; preds = %luckyCanonicizerS_F_first_16Vars1.exit, %.preheader15.i29
  %25 = call i32 @minimalSwapAndFlipIVar_superFast_all(ptr noundef nonnull %7, i32 noundef %1, i32 noundef %2, ptr noundef readonly %3, ptr noundef nonnull %8, ptr noundef nonnull %9)
  %.not14.i30 = icmp eq i32 %25, 0
  br i1 %.not14.i30, label %luckyCanonicizerS_F_first_16Vars1.exit33, label %.preheader15.i29, !llvm.loop !36

.preheader.i31:                                   ; preds = %luckyCanonicizerS_F_first_16Vars1.exit, %.preheader.i31
  %26 = call i32 @minimalSwapAndFlipIVar_superFast_all_noEBFC(ptr noundef nonnull %7, i32 noundef %1, i32 noundef %2, ptr noundef readonly %3, ptr noundef nonnull %8, ptr noundef nonnull %9)
  %.not13.i32 = icmp eq i32 %26, 0
  br i1 %.not13.i32, label %luckyCanonicizerS_F_first_16Vars1.exit33, label %.preheader.i31, !llvm.loop !37

luckyCanonicizerS_F_first_16Vars1.exit33:         ; preds = %.preheader15.i29, %.preheader.i31
  %27 = call i32 @memCompare(ptr noundef %0, ptr noundef nonnull %7, i32 noundef %1) #9
  %28 = icmp eq i32 %27, 1
  br i1 %28, label %29, label %luckyCanonicizerS_F_first_16Vars1.exit39

29:                                               ; preds = %luckyCanonicizerS_F_first_16Vars1.exit33
  %30 = load i32, ptr %9, align 4, !tbaa !6
  store i32 %30, ptr %5, align 4, !tbaa !6
  call void @llvm.memcpy.p0.p0.i64(ptr noundef nonnull align 1 dereferenceable(16) %4, ptr noundef nonnull align 16 dereferenceable(16) %8, i64 16, i1 false)
  call void @llvm.memcpy.p0.p0.i64(ptr align 8 %0, ptr nonnull align 16 %7, i64 %15, i1 false)
  br label %luckyCanonicizerS_F_first_16Vars1.exit39

31:                                               ; preds = %6
  %32 = add nsw i32 %1, 1
  %33 = shl nuw i32 1, %32
  %34 = and i32 %10, %33
  %.not.i34 = icmp eq i32 %34, 0
  br i1 %.not.i34, label %.preheader.i37, label %.preheader15.i35

.preheader15.i35:                                 ; preds = %31, %.preheader15.i35
  %35 = tail call i32 @minimalSwapAndFlipIVar_superFast_all(ptr noundef %0, i32 noundef %1, i32 noundef %2, ptr noundef readonly %3, ptr noundef %4, ptr noundef nonnull %5)
  %.not14.i36 = icmp eq i32 %35, 0
  br i1 %.not14.i36, label %luckyCanonicizerS_F_first_16Vars1.exit39, label %.preheader15.i35, !llvm.loop !36

.preheader.i37:                                   ; preds = %31, %.preheader.i37
  %36 = tail call i32 @minimalSwapAndFlipIVar_superFast_all_noEBFC(ptr noundef %0, i32 noundef %1, i32 noundef %2, ptr noundef readonly %3, ptr noundef %4, ptr noundef nonnull %5)
  %.not13.i38 = icmp eq i32 %36, 0
  br i1 %.not13.i38, label %luckyCanonicizerS_F_first_16Vars1.exit39, label %.preheader.i37, !llvm.loop !37

luckyCanonicizerS_F_first_16Vars1.exit39:         ; preds = %.preheader15.i35, %.preheader.i37, %luckyCanonicizerS_F_first_16Vars1.exit33, %29
  call void @llvm.lifetime.end.p0(i64 4, ptr nonnull %9) #9
  call void @llvm.lifetime.end.p0(i64 16, ptr nonnull %8) #9
  call void @llvm.lifetime.end.p0(i64 8192, ptr nonnull %7) #9
  ret void
}